target datalayout = "e-m:e-p270:32:32-p271:32:32-p272:64:64-i64:64-i128:128-f80:128-n8:16:32:64-S128"
target triple = "x86_64-pc-linux-gnu"

%struct.tsi_handshaker_result = type { ptr }
%struct.tsi_handshaker_result_vtable = type { ptr, ptr, ptr, ptr, ptr, ptr }

; Function Attrs: mustprogress uwtable
define noundef i32 @_Z38tsi_handshaker_result_get_unused_bytesPK21tsi_handshaker_resultPPKhPm(ptr noundef %0, ptr noundef %1, ptr noundef %2) #5 {
  %4 = alloca i32, align 4
  %5 = alloca ptr, align 8
  %6 = alloca ptr, align 8
  %7 = alloca ptr, align 8
  store ptr %0, ptr %5, align 8, !tbaa !58
  store ptr %1, ptr %6, align 8, !tbaa !47
  store ptr %2, ptr %7, align 8, !tbaa !14
  %8 = load ptr, ptr %5, align 8, !tbaa !58
  %9 = icmp eq ptr %8, null
  br i1 %9, label %21, label %10

10:                                               ; preds = %3
  %11 = load ptr, ptr %5, align 8, !tbaa !58
  %12 = getelementptr inbounds nuw %struct.tsi_handshaker_result, ptr %11, i32 0, i32 0
  %13 = load ptr, ptr %12, align 8, !tbaa !60
  %14 = icmp eq ptr %13, null
  br i1 %14, label %21, label %15

15:                                               ; preds = %10
  %16 = load ptr, ptr %6, align 8, !tbaa !47
  %17 = icmp eq ptr %16, null
  br i1 %17, label %21, label %18

18:                                               ; preds = %15
  %19 = load ptr, ptr %7, align 8, !tbaa !14
  %20 = icmp eq ptr %19, null
  br i1 %20, label %21, label %22

21:                                               ; preds = %18, %15, %10, %3
  store i32 2, ptr %4, align 4
  br label %40

22:                                               ; preds = %18
  %23 = load ptr, ptr %5, align 8, !tbaa !58
  %24 = getelementptr inbounds nuw %struct.tsi_handshaker_result, ptr %23, i32 0, i32 0
  %25 = load ptr, ptr %24, align 8, !tbaa !60
  %26 = getelementptr inbounds nuw %struct.tsi_handshaker_result_vtable, ptr %25, i32 0, i32 4
  %27 = load ptr, ptr %26, align 8, !tbaa !67
  %28 = icmp eq ptr %27, null
  br i1 %28, label %29, label %30

29:                                               ; preds = %22
  store i32 6, ptr %4, align 4
  br label %40

30:                                               ; preds = %22
  %31 = load ptr, ptr %5, align 8, !tbaa !58
  %32 = getelementptr inbounds nuw %struct.tsi_handshaker_result, ptr %31, i32 0, i32 0
  %33 = load ptr, ptr %32, align 8, !tbaa !60
  %34 = getelementptr inbounds nuw %struct.tsi_handshaker_result_vtable, ptr %33, i32 0, i32 4
  %35 = load ptr, ptr %34, align 8, !tbaa !67
  %36 = load ptr, ptr %5, align 8, !tbaa !58
  %37 = load ptr, ptr %6, align 8, !tbaa !47
  %38 = load ptr, ptr %7, align 8, !tbaa !14
  %39 = call noundef i32 %35(ptr noundef %36, ptr noundef %37, ptr noundef %38)
  store i32 %39, ptr %4, align 4
  br label %40

40:                                               ; preds = %30, %29, %21
  %41 = load i32, ptr %4, align 4
  ret i32 %41
}