; Function Attrs: mustprogress uwtable
define noundef i32 @_Z38tsi_handshaker_result_get_unused_bytesPK21tsi_handshaker_resultPPKhPm(ptr noundef %0, ptr noundef %1, ptr noundef %2) local_unnamed_addr #4 {
  %4 = icmp eq ptr %0, null
  br i1 %4, label %16, label %5

5:                                                ; preds = %3
  %6 = load ptr, ptr %0, align 8, !tbaa !37
  %7 = icmp eq ptr %6, null
  %8 = icmp eq ptr %1, null
  %or.cond = or i1 %8, %7
  %9 = icmp eq ptr %2, null
  %or.cond3 = or i1 %9, %or.cond
  br i1 %or.cond3, label %16, label %10

10:                                               ; preds = %5
  %11 = getelementptr inbounds nuw i8, ptr %6, i64 32
  %12 = load ptr, ptr %11, align 8, !tbaa !44
  %13 = icmp eq ptr %12, null
  br i1 %13, label %16, label %14

14:                                               ; preds = %10
  %15 = tail call noundef i32 %12(ptr noundef nonnull %0, ptr noundef nonnull %1, ptr noundef nonnull %2)
  br label %16

16:                                               ; preds = %10, %3, %5, %14
  %.0 = phi i32 [ %15, %14 ], [ 2, %5 ], [ 2, %3 ], [ 6, %10 ]
  ret i32 %.0
}